target datalayout = "e-m:e-p270:32:32-p271:32:32-p272:64:64-i64:64-i128:128-f80:128-n8:16:32:64-S128"
target triple = "x86_64-pc-linux-gnu"

%struct.connectdata = type { %struct.Curl_llist_node, ptr, ptr, i64, ptr, i64, ptr, ptr, %struct.hostname, ptr, ptr, %struct.hostname, %struct.proxy_info, %struct.proxy_info, %struct.ip_quadruple, %struct.ip_quadruple, ptr, ptr, ptr, ptr, ptr, %struct.curltime, %struct.curltime, %struct.curltime, [2 x i32], [2 x ptr], [2 x ptr], [2 x ptr], %struct.anon, %struct.easy_pollset, %struct.ssl_primary_config, %struct.ssl_primary_config, %struct.ConnectBits, ptr, ptr, %struct.curltime, i32, i32, %struct.Curl_llist, i32, i32, %struct.ntlmdata, %struct.ntlmdata, %union.anon, ptr, ptr, i16, i32, i32, i32, i32, i16, i16, i8, i8, i8, i8, i8, i8, i8 }
%struct.Curl_llist_node = type { ptr, ptr, ptr, ptr }
%struct.hostname = type { ptr, ptr, ptr, ptr }
%struct.proxy_info = type { %struct.hostname, i32, i8, ptr, ptr }
%struct.ip_quadruple = type { [46 x i8], [46 x i8], i32, i32 }
%struct.anon = type { [2 x %struct.curltime], i32 }
%struct.easy_pollset = type { [5 x i32], i32, [5 x i8] }
%struct.ssl_primary_config = type { ptr, ptr, ptr, ptr, ptr, ptr, ptr, ptr, ptr, ptr, ptr, ptr, ptr, ptr, i8, i32, i8, i8 }
%struct.ConnectBits = type { i64 }
%struct.curltime = type { i64, i32 }
%struct.Curl_llist = type { ptr, ptr, ptr, i64 }
%struct.ntlmdata = type { i32, [8 x i8], i32, ptr }
%union.anon = type { %struct.ftp_conn }
%struct.ftp_conn = type { %struct.pingpong, ptr, ptr, ptr, ptr, ptr, ptr, ptr, i8, i64, ptr, i64, i32, i32, i32, i32, i32, i16, i8, i8, i8, i8, i8 }
%struct.pingpong = type { i64, i8, ptr, i64, i64, %struct.curltime, i64, %struct.dynbuf, %struct.dynbuf, i64, i64, ptr, ptr }
%struct.dynbuf = type { ptr, i64, i64, i64 }
%struct.tftp_state_data = type { i32, i32, i32, i32, ptr, i32, i32, i32, i32, i64, %struct.Curl_sockaddr_storage, %struct.Curl_sockaddr_storage, i32, i32, i32, i32, i32, i16, %struct.tftp_packet, %struct.tftp_packet }
%struct.Curl_sockaddr_storage = type { %union.anon.0 }
%union.anon.0 = type { %struct.sockaddr_storage }
%struct.sockaddr_storage = type { i16, [118 x i8], i64 }
%struct.tftp_packet = type { ptr }

@Curl_cfree = external global ptr, align 8

; Function Attrs: nounwind uwtable
define internal i32 @tftp_disconnect(ptr noundef %0, ptr noundef %1, i1 noundef zeroext %2) #0 {
  %4 = alloca ptr, align 8
  %5 = alloca ptr, align 8
  %6 = alloca i8, align 1
  %7 = alloca ptr, align 8
  store ptr %0, ptr %4, align 8, !tbaa !3
  store ptr %1, ptr %5, align 8, !tbaa !8
  %8 = zext i1 %2 to i8
  store i8 %8, ptr %6, align 1, !tbaa !93
  call void @llvm.lifetime.start.p0(i64 8, ptr %7) #6
  %9 = load ptr, ptr %5, align 8, !tbaa !8
  %10 = getelementptr inbounds nuw %struct.connectdata, ptr %9, i32 0, i32 43
  %11 = load ptr, ptr %10, align 8, !tbaa !89
  store ptr %11, ptr %7, align 8, !tbaa !96
  %12 = load ptr, ptr %7, align 8, !tbaa !96
  %13 = icmp ne ptr %12, null
  br i1 %13, label %14, label %39

14:                                               ; preds = %3
  br label %15

15:                                               ; preds = %14
  %16 = load ptr, ptr @Curl_cfree, align 8, !tbaa !102
  %17 = load ptr, ptr %7, align 8, !tbaa !96
  %18 = getelementptr inbounds nuw %struct.tftp_state_data, ptr %17, i32 0, i32 18
  %19 = getelementptr inbounds nuw %struct.tftp_packet, ptr %18, i32 0, i32 0
  %20 = load ptr, ptr %19, align 8, !tbaa !104
  call void %16(ptr noundef %20)
  %21 = load ptr, ptr %7, align 8, !tbaa !96
  %22 = getelementptr inbounds nuw %struct.tftp_state_data, ptr %21, i32 0, i32 18
  %23 = getelementptr inbounds nuw %struct.tftp_packet, ptr %22, i32 0, i32 0
  store ptr null, ptr %23, align 8, !tbaa !104
  br label %24

24:                                               ; preds = %15
  br label %25

25:                                               ; preds = %24
  br label %26

26:                                               ; preds = %25
  %27 = load ptr, ptr @Curl_cfree, align 8, !tbaa !102
  %28 = load ptr, ptr %7, align 8, !tbaa !96
  %29 = getelementptr inbounds nuw %struct.tftp_state_data, ptr %28, i32 0, i32 19
  %30 = getelementptr inbounds nuw %struct.tftp_packet, ptr %29, i32 0, i32 0
  %31 = load ptr, ptr %30, align 8, !tbaa !105
  call void %27(ptr noundef %31)
  %32 = load ptr, ptr %7, align 8, !tbaa !96
  %33 = getelementptr inbounds nuw %struct.tftp_state_data, ptr %32, i32 0, i32 19
  %34 = getelementptr inbounds nuw %struct.tftp_packet, ptr %33, i32 0, i32 0
  store ptr null, ptr %34, align 8, !tbaa !105
  br label %35

35:                                               ; preds = %26
  br label %36

36:                                               ; preds = %35
  %37 = load ptr, ptr @Curl_cfree, align 8, !tbaa !102
  %38 = load ptr, ptr %7, align 8, !tbaa !96
  call void %37(ptr noundef %38)
  br label %39

39:                                               ; preds = %36, %3
  call void @llvm.lifetime.end.p0(i64 8, ptr %7) #6
  ret i32 0
}