; Function Attrs: nounwind uwtable
define internal noundef i32 @tftp_disconnect(ptr readnone captures(none) %0, ptr noundef readonly captures(none) %1, i1 zeroext %2) #0 {
  %4 = getelementptr inbounds nuw i8, ptr %1, i64 1088
  %5 = load ptr, ptr %4, align 8, !tbaa !85
  %.not = icmp eq ptr %5, null
  br i1 %.not, label %14, label %6

6:                                                ; preds = %3
  %7 = load ptr, ptr @Curl_cfree, align 8, !tbaa !95
  %8 = getelementptr inbounds nuw i8, ptr %5, i64 328
  %9 = load ptr, ptr %8, align 8, !tbaa !97
  tail call void %7(ptr noundef %9) #13
  store ptr null, ptr %8, align 8, !tbaa !97
  %10 = load ptr, ptr @Curl_cfree, align 8, !tbaa !95
  %11 = getelementptr inbounds nuw i8, ptr %5, i64 336
  %12 = load ptr, ptr %11, align 8, !tbaa !98
  tail call void %10(ptr noundef %12) #13
  store ptr null, ptr %11, align 8, !tbaa !98
  %13 = load ptr, ptr @Curl_cfree, align 8, !tbaa !95
  tail call void %13(ptr noundef nonnull %5) #13
  br label %14

14:                                               ; preds = %6, %3
  ret i32 0
}